target datalayout = "e-m:e-p270:32:32-p271:32:32-p272:64:64-i64:64-i128:128-f80:128-n8:16:32:64-S128"
target triple = "x86_64-pc-linux-gnu"

%"class.icu_77::UVector" = type { %"class.icu_77::UObject", i32, i32, ptr, ptr, ptr }
%"class.icu_77::UObject" = type { ptr }
%"class.icu_77::UnicodeString" = type { %"class.icu_77::Replaceable", %"union.icu_77::UnicodeString::StackBufferOrFields" }
%"class.icu_77::Replaceable" = type { %"class.icu_77::UObject" }
%"union.icu_77::UnicodeString::StackBufferOrFields" = type { %struct.anon.0, [32 x i8] }
%struct.anon.0 = type { i16, i32, i32, ptr }
%"class.icu_77::RBBINode" = type { i32, ptr, ptr, ptr, ptr, i32, %"class.icu_77::UnicodeString", i32, i32, i8, i32, i8, i8, i8, ptr, ptr, ptr }

; Function Attrs: inlinehint mustprogress nounwind uwtable
define linkonce_odr noundef i32 @_ZNK6icu_777UVector4sizeEv(ptr noundef nonnull align 8 dereferenceable(40) %0) #1 comdat align 2 {
  %2 = alloca ptr, align 8
  store ptr %0, ptr %2, align 8, !tbaa !31
  %3 = load ptr, ptr %2, align 8
  %4 = getelementptr inbounds nuw %"class.icu_77::UVector", ptr %3, i32 0, i32 1
  %5 = load i32, ptr %4, align 8, !tbaa !32
  ret i32 %5
}

; Function Attrs: mustprogress uwtable
define void @_ZN6icu_7716RBBITableBuilder13calcFollowPosEPNS_8RBBINodeE(ptr noundef nonnull align 8 dereferenceable(52) %0, ptr noundef %1) #0 align 2 {
  %3 = alloca ptr, align 8
  %4 = alloca ptr, align 8
  %5 = alloca ptr, align 8
  %6 = alloca i32, align 4
  %7 = alloca ptr, align 8
  %8 = alloca ptr, align 8
  %9 = alloca i32, align 4
  store ptr %0, ptr %3, align 8, !tbaa !3
  store ptr %1, ptr %4, align 8, !tbaa !37
  %10 = load ptr, ptr %3, align 8
  %11 = load ptr, ptr %4, align 8, !tbaa !37
  %12 = icmp eq ptr %11, null
  br i1 %12, label %23, label %13

13:                                               ; preds = %2
  %14 = load ptr, ptr %4, align 8, !tbaa !37
  %15 = getelementptr inbounds nuw %"class.icu_77::RBBINode", ptr %14, i32 0, i32 0
  %16 = load i32, ptr %15, align 8, !tbaa !58
  %17 = icmp eq i32 %16, 3
  br i1 %17, label %23, label %18

18:                                               ; preds = %13
  %19 = load ptr, ptr %4, align 8, !tbaa !37
  %20 = getelementptr inbounds nuw %"class.icu_77::RBBINode", ptr %19, i32 0, i32 0
  %21 = load i32, ptr %20, align 8, !tbaa !58
  %22 = icmp eq i32 %21, 6
  br i1 %22, label %23, label %24

23:                                               ; preds = %18, %13, %2
  br label %96

24:                                               ; preds = %18
  %25 = load ptr, ptr %4, align 8, !tbaa !37
  %26 = getelementptr inbounds nuw %"class.icu_77::RBBINode", ptr %25, i32 0, i32 2
  %27 = load ptr, ptr %26, align 8, !tbaa !48
  call void @_ZN6icu_7716RBBITableBuilder13calcFollowPosEPNS_8RBBINodeE(ptr noundef nonnull align 8 dereferenceable(52) %10, ptr noundef %27)
  %28 = load ptr, ptr %4, align 8, !tbaa !37
  %29 = getelementptr inbounds nuw %"class.icu_77::RBBINode", ptr %28, i32 0, i32 3
  %30 = load ptr, ptr %29, align 8, !tbaa !53
  call void @_ZN6icu_7716RBBITableBuilder13calcFollowPosEPNS_8RBBINodeE(ptr noundef nonnull align 8 dereferenceable(52) %10, ptr noundef %30)
  %31 = load ptr, ptr %4, align 8, !tbaa !37
  %32 = getelementptr inbounds nuw %"class.icu_77::RBBINode", ptr %31, i32 0, i32 0
  %33 = load i32, ptr %32, align 8, !tbaa !58
  %34 = icmp eq i32 %33, 8
  br i1 %34, label %35, label %62

35:                                               ; preds = %24
  call void @llvm.lifetime.start.p0(i64 8, ptr %5) #11
  call void @llvm.lifetime.start.p0(i64 4, ptr %6) #11
  call void @llvm.lifetime.start.p0(i64 8, ptr %7) #11
  %36 = load ptr, ptr %4, align 8, !tbaa !37
  %37 = getelementptr inbounds nuw %"class.icu_77::RBBINode", ptr %36, i32 0, i32 2
  %38 = load ptr, ptr %37, align 8, !tbaa !48
  %39 = getelementptr inbounds nuw %"class.icu_77::RBBINode", ptr %38, i32 0, i32 15
  %40 = load ptr, ptr %39, align 8, !tbaa !61
  store ptr %40, ptr %7, align 8, !tbaa !31
  store i32 0, ptr %6, align 4, !tbaa !26
  br label %41

41:                                               ; preds = %58, %35
  %42 = load i32, ptr %6, align 4, !tbaa !26
  %43 = load ptr, ptr %7, align 8, !tbaa !31
  %44 = call noundef i32 @_ZNK6icu_777UVector4sizeEv(ptr noundef nonnull align 8 dereferenceable(40) %43)
  %45 = icmp ult i32 %42, %44
  br i1 %45, label %46, label %61

46:                                               ; preds = %41
  %47 = load ptr, ptr %7, align 8, !tbaa !31
  %48 = load i32, ptr %6, align 4, !tbaa !26
  %49 = call noundef ptr @_ZNK6icu_777UVector9elementAtEi(ptr noundef nonnull align 8 dereferenceable(40) %47, i32 noundef %48)
  store ptr %49, ptr %5, align 8, !tbaa !37
  %50 = load ptr, ptr %5, align 8, !tbaa !37
  %51 = getelementptr inbounds nuw %"class.icu_77::RBBINode", ptr %50, i32 0, i32 16
  %52 = load ptr, ptr %51, align 8, !tbaa !62
  %53 = load ptr, ptr %4, align 8, !tbaa !37
  %54 = getelementptr inbounds nuw %"class.icu_77::RBBINode", ptr %53, i32 0, i32 3
  %55 = load ptr, ptr %54, align 8, !tbaa !53
  %56 = getelementptr inbounds nuw %"class.icu_77::RBBINode", ptr %55, i32 0, i32 14
  %57 = load ptr, ptr %56, align 8, !tbaa !60
  call void @_ZN6icu_7716RBBITableBuilder6setAddEPNS_7UVectorES2_(ptr noundef nonnull align 8 dereferenceable(52) %10, ptr noundef %52, ptr noundef %57)
  br label %58

58:                                               ; preds = %46
  %59 = load i32, ptr %6, align 4, !tbaa !26
  %60 = add i32 %59, 1
  store i32 %60, ptr %6, align 4, !tbaa !26
  br label %41, !llvm.loop !63

61:                                               ; preds = %41
  call void @llvm.lifetime.end.p0(i64 8, ptr %7) #11
  call void @llvm.lifetime.end.p0(i64 4, ptr %6) #11
  call void @llvm.lifetime.end.p0(i64 8, ptr %5) #11
  br label %62

62:                                               ; preds = %61, %24
  %63 = load ptr, ptr %4, align 8, !tbaa !37
  %64 = getelementptr inbounds nuw %"class.icu_77::RBBINode", ptr %63, i32 0, i32 0
  %65 = load i32, ptr %64, align 8, !tbaa !58
  %66 = icmp eq i32 %65, 10
  br i1 %66, label %72, label %67

67:                                               ; preds = %62
  %68 = load ptr, ptr %4, align 8, !tbaa !37
  %69 = getelementptr inbounds nuw %"class.icu_77::RBBINode", ptr %68, i32 0, i32 0
  %70 = load i32, ptr %69, align 8, !tbaa !58
  %71 = icmp eq i32 %70, 11
  br i1 %71, label %72, label %96

72:                                               ; preds = %67, %62
  call void @llvm.lifetime.start.p0(i64 8, ptr %8) #11
  call void @llvm.lifetime.start.p0(i64 4, ptr %9) #11
  store i32 0, ptr %9, align 4, !tbaa !26
  br label %73

73:                                               ; preds = %92, %72
  %74 = load i32, ptr %9, align 4, !tbaa !26
  %75 = load ptr, ptr %4, align 8, !tbaa !37
  %76 = getelementptr inbounds nuw %"class.icu_77::RBBINode", ptr %75, i32 0, i32 15
  %77 = load ptr, ptr %76, align 8, !tbaa !61
  %78 = call noundef i32 @_ZNK6icu_777UVector4sizeEv(ptr noundef nonnull align 8 dereferenceable(40) %77)
  %79 = icmp ult i32 %74, %78
  br i1 %79, label %80, label %95

80:                                               ; preds = %73
  %81 = load ptr, ptr %4, align 8, !tbaa !37
  %82 = getelementptr inbounds nuw %"class.icu_77::RBBINode", ptr %81, i32 0, i32 15
  %83 = load ptr, ptr %82, align 8, !tbaa !61
  %84 = load i32, ptr %9, align 4, !tbaa !26
  %85 = call noundef ptr @_ZNK6icu_777UVector9elementAtEi(ptr noundef nonnull align 8 dereferenceable(40) %83, i32 noundef %84)
  store ptr %85, ptr %8, align 8, !tbaa !37
  %86 = load ptr, ptr %8, align 8, !tbaa !37
  %87 = getelementptr inbounds nuw %"class.icu_77::RBBINode", ptr %86, i32 0, i32 16
  %88 = load ptr, ptr %87, align 8, !tbaa !62
  %89 = load ptr, ptr %4, align 8, !tbaa !37
  %90 = getelementptr inbounds nuw %"class.icu_77::RBBINode", ptr %89, i32 0, i32 14
  %91 = load ptr, ptr %90, align 8, !tbaa !60
  call void @_ZN6icu_7716RBBITableBuilder6setAddEPNS_7UVectorES2_(ptr noundef nonnull align 8 dereferenceable(52) %10, ptr noundef %88, ptr noundef %91)
  br label %92

92:                                               ; preds = %80
  %93 = load i32, ptr %9, align 4, !tbaa !26
  %94 = add i32 %93, 1
  store i32 %94, ptr %9, align 4, !tbaa !26
  br label %73, !llvm.loop !64

95:                                               ; preds = %73
  call void @llvm.lifetime.end.p0(i64 4, ptr %9) #11
  call void @llvm.lifetime.end.p0(i64 8, ptr %8) #11
  br label %96

96:                                               ; preds = %23, %95, %67
  ret void
}