; Function Attrs: mustprogress uwtable
define void @_ZN6icu_7716RBBITableBuilder13calcFollowPosEPNS_8RBBINodeE(ptr noundef nonnull align 8 dereferenceable(52) %0, ptr noundef readonly %1) local_unnamed_addr #0 align 2 {
  %3 = icmp eq ptr %1, null
  br i1 %3, label %.loopexit, label %4

4:                                                ; preds = %2
  %5 = load i32, ptr %1, align 8, !tbaa !52
  switch i32 %5, label %6 [
    i32 3, label %.loopexit
    i32 6, label %.loopexit
  ]

6:                                                ; preds = %4
  %7 = getelementptr inbounds nuw i8, ptr %1, i64 16
  %8 = load ptr, ptr %7, align 8, !tbaa !43
  tail call void @_ZN6icu_7716RBBITableBuilder13calcFollowPosEPNS_8RBBINodeE(ptr noundef nonnull align 8 dereferenceable(52) %0, ptr noundef %8)
  %9 = getelementptr inbounds nuw i8, ptr %1, i64 24
  %10 = load ptr, ptr %9, align 8, !tbaa !48
  tail call void @_ZN6icu_7716RBBITableBuilder13calcFollowPosEPNS_8RBBINodeE(ptr noundef nonnull align 8 dereferenceable(52) %0, ptr noundef %10)
  %11 = load i32, ptr %1, align 8, !tbaa !52
  %12 = icmp eq i32 %11, 8
  br i1 %12, label %13, label %.loopexit27

13:                                               ; preds = %6
  %14 = load ptr, ptr %7, align 8, !tbaa !43
  %15 = getelementptr inbounds nuw i8, ptr %14, i64 144
  %16 = load ptr, ptr %15, align 8, !tbaa !55
  %17 = getelementptr inbounds nuw i8, ptr %16, i64 8
  %18 = load i32, ptr %17, align 8, !tbaa !20
  %.not = icmp eq i32 %18, 0
  br i1 %.not, label %.loopexit, label %.lr.ph

.lr.ph:                                           ; preds = %13, %.lr.ph
  %.02328 = phi i32 [ %25, %.lr.ph ], [ 0, %13 ]
  %19 = tail call noundef ptr @_ZNK6icu_777UVector9elementAtEi(ptr noundef nonnull align 8 dereferenceable(40) %16, i32 noundef %.02328)
  %20 = getelementptr inbounds nuw i8, ptr %19, i64 152
  %21 = load ptr, ptr %20, align 8, !tbaa !56
  %22 = load ptr, ptr %9, align 8, !tbaa !48
  %23 = getelementptr inbounds nuw i8, ptr %22, i64 136
  %24 = load ptr, ptr %23, align 8, !tbaa !54
  tail call void @_ZN6icu_7716RBBITableBuilder6setAddEPNS_7UVectorES2_(ptr noundef nonnull align 8 dereferenceable(52) %0, ptr noundef %21, ptr noundef %24)
  %25 = add nuw i32 %.02328, 1
  %26 = load i32, ptr %17, align 8, !tbaa !20
  %27 = icmp ult i32 %25, %26
  br i1 %27, label %.lr.ph, label %.loopexit27.loopexit, !llvm.loop !57

.loopexit27.loopexit:                             ; preds = %.lr.ph
  %.pre = load i32, ptr %1, align 8, !tbaa !52
  br label %.loopexit27

.loopexit27:                                      ; preds = %.loopexit27.loopexit, %6
  %28 = phi i32 [ %.pre, %.loopexit27.loopexit ], [ %11, %6 ]
  %29 = and i32 %28, -2
  %switch = icmp eq i32 %29, 10
  br i1 %switch, label %.preheader, label %.loopexit

.preheader:                                       ; preds = %.loopexit27
  %30 = getelementptr inbounds nuw i8, ptr %1, i64 144
  %31 = load ptr, ptr %30, align 8, !tbaa !55
  %32 = getelementptr inbounds nuw i8, ptr %31, i64 8
  %33 = load i32, ptr %32, align 8, !tbaa !20
  %.not31 = icmp eq i32 %33, 0
  br i1 %.not31, label %.loopexit, label %.lr.ph30

.lr.ph30:                                         ; preds = %.preheader
  %34 = getelementptr inbounds nuw i8, ptr %1, i64 136
  br label %35

35:                                               ; preds = %.lr.ph30, %35
  %36 = phi ptr [ %31, %.lr.ph30 ], [ %42, %35 ]
  %.029 = phi i32 [ 0, %.lr.ph30 ], [ %41, %35 ]
  %37 = tail call noundef ptr @_ZNK6icu_777UVector9elementAtEi(ptr noundef nonnull align 8 dereferenceable(40) %36, i32 noundef %.029)
  %38 = getelementptr inbounds nuw i8, ptr %37, i64 152
  %39 = load ptr, ptr %38, align 8, !tbaa !56
  %40 = load ptr, ptr %34, align 8, !tbaa !54
  tail call void @_ZN6icu_7716RBBITableBuilder6setAddEPNS_7UVectorES2_(ptr noundef nonnull align 8 dereferenceable(52) %0, ptr noundef %39, ptr noundef %40)
  %41 = add nuw i32 %.029, 1
  %42 = load ptr, ptr %30, align 8, !tbaa !55
  %43 = getelementptr inbounds nuw i8, ptr %42, i64 8
  %44 = load i32, ptr %43, align 8, !tbaa !20
  %45 = icmp ult i32 %41, %44
  br i1 %45, label %35, label %.loopexit, !llvm.loop !58

.loopexit:                                        ; preds = %35, %13, %.preheader, %.loopexit27, %4, %4, %2
  ret void
}